(dp0
Vand
p1
ccopy_reg
_reconstructor
p2
(cgensim.models.word2vec
Vocab
p3
c__builtin__
object
p4
Ntp5
Rp6
(dp7
S'count'
p8
I2200003
sS'index'
p9
I0
sS'code'
p10
cnumpy.core.multiarray
_reconstruct
p11
(cnumpy
ndarray
p12
(I0
tp13
S'b'
p14
tp15
Rp16
(I1
(I2
tp17
cnumpy
dtype
p18
(S'u1'
p19
I0
I1
tp20
Rp21
(I3
S'|'
p22
NNNI-1
I-1
I0
tp23
bI00
S'\x01\x01'
p24
tp25
bsS'sample_probability'
p26
F1.0
sS'point'
p27
g11
(g12
(I0
tp28
g14
tp29
Rp30
(I1
(I2
tp31
g18
(S'u4'
p32
I0
I1
tp33
Rp34
(I3
S'<'
p35
NNNI-1
I-1
I0
tp36
bI00
S'\x03\x00\x00\x00\x02\x00\x00\x00'
p37
tp38
bsbsVhappy
p39
g2
(g3
g4
Ntp40
Rp41
(dp42
g8
I2100002
sg9
I4
sg10
g11
(g12
(I0
tp43
g14
tp44
Rp45
(I1
(I2
tp46
g21
I00
S'\x01\x00'
p47
tp48
bsg26
F1.0
sg27
g30
sbsVlesbian
p49
g2
(g3
g4
Ntp50
Rp51
(dp52
g8
I100001
sg9
I2
sg10
g11
(g12
(I0
tp53
g14
tp54
Rp55
(I1
(I3
tp56
g21
I00
S'\x00\x00\x00'
p57
tp58
bsg26
F1.0
sg27
g11
(g12
(I0
tp59
g14
tp60
Rp61
(I1
(I3
tp62
g34
I00
S'\x03\x00\x00\x00\x01\x00\x00\x00\x00\x00\x00\x00'
p63
tp64
bsbsVgay
p65
g2
(g3
g4
Ntp66
Rp67
(dp68
g8
I200001
sg9
I3
sg10
g11
(g12
(I0
tp69
g14
tp70
Rp71
(I1
(I3
tp72
g21
I00
S'\x00\x00\x01'
p73
tp74
bsg26
F1.0
sg27
g61
sbsVsad
p75
g2
(g3
g4
Ntp76
Rp77
(dp78
g8
I2000002
sg9
I1
sg10
g11
(g12
(I0
tp79
g14
tp80
Rp81
(I1
(I2
tp82
g21
I00
S'\x00\x01'
p83
tp84
bsg26
F1.0
sg27
g11
(g12
(I0
tp85
g14
tp86
Rp87
(I1
(I2
tp88
g34
I00
S'\x03\x00\x00\x00\x01\x00\x00\x00'
p89
tp90
bsbs.